; Function Attrs: mustprogress uwtable
define internal fastcc void @_ZN4leanL12ensure_arityERKNS_4exprEj(ptr dead_on_unwind noalias nonnull writable align 8 %0, ptr noundef nonnull align 8 dereferenceable(8) %1, i32 noundef %2) unnamed_addr #0 personality ptr @__gxx_personality_v0 {
  %4 = alloca %"class.lean::expr", align 8
  %5 = icmp eq i32 %2, 0
  %6 = load ptr, ptr %1, align 8, !tbaa !13
  br i1 %5, label %7, label %20

7:                                                ; preds = %3
  %8 = getelementptr i8, ptr %6, i64 4
  %.val.i.i.i.i = load i32, ptr %8, align 4
  %.mask.i = and i32 %.val.i.i.i.i, -16777216
  %9 = icmp eq i32 %.mask.i, 117440512
  br i1 %9, label %10, label %11

10:                                               ; preds = %7
  tail call void @_ZN4lean18mk_enf_object_typeEv(ptr dead_on_unwind nonnull writable sret(%"class.lean::expr") align 8 %0)
  br label %_ZN4lean4exprC2ERKS0_.exit

11:                                               ; preds = %7
  store ptr %6, ptr %0, align 8, !tbaa !13
  %12 = ptrtoint ptr %6 to i64
  %13 = and i64 %12, 1
  %.not.i.i.i = icmp eq i64 %13, 0
  br i1 %.not.i.i.i, label %14, label %_ZN4lean4exprC2ERKS0_.exit

14:                                               ; preds = %11
  %.val.i.i.i.i8 = load i32, ptr %6, align 4, !tbaa !25
  %15 = icmp sgt i32 %.val.i.i.i.i8, 0
  br i1 %15, label %16, label %18, !prof !28

16:                                               ; preds = %14
  %17 = add nuw nsw i32 %.val.i.i.i.i8, 1
  store i32 %17, ptr %6, align 4, !tbaa !25
  br label %_ZN4lean4exprC2ERKS0_.exit

18:                                               ; preds = %14
  %.not.i.i.i.i = icmp eq i32 %.val.i.i.i.i8, 0
  br i1 %.not.i.i.i.i, label %_ZN4lean4exprC2ERKS0_.exit, label %19

19:                                               ; preds = %18
  tail call void @lean_inc_ref_cold(ptr noundef nonnull %6)
  br label %_ZN4lean4exprC2ERKS0_.exit

20:                                               ; preds = %3
  %21 = getelementptr inbounds nuw i8, ptr %6, i64 16
  call void @llvm.lifetime.start.p0(i64 8, ptr nonnull %4) #18
  %22 = getelementptr inbounds nuw i8, ptr %6, i64 24
  %23 = add i32 %2, -1
  call fastcc void @_ZN4leanL12ensure_arityERKNS_4exprEj(ptr dead_on_unwind noalias writable align 8 %4, ptr noundef nonnull align 8 dereferenceable(8) %22, i32 noundef %23)
  invoke void @_ZN4lean14update_bindingERKNS_4exprES2_S2_(ptr dead_on_unwind nonnull writable sret(%"class.lean::expr") align 8 %0, ptr noundef nonnull align 8 dereferenceable(8) %1, ptr noundef nonnull align 8 dereferenceable(8) %21, ptr noundef nonnull align 8 dereferenceable(8) %4)
          to label %24 unwind label %38

24:                                               ; preds = %20
  %25 = load ptr, ptr %4, align 8, !tbaa !13
  %26 = ptrtoint ptr %25 to i64
  %27 = and i64 %26, 1
  %.not.i.i = icmp eq i64 %27, 0
  br i1 %.not.i.i, label %28, label %_ZN4lean10object_refD2Ev.exit

28:                                               ; preds = %24
  %29 = load i32, ptr %25, align 4, !tbaa !25
  %30 = icmp sgt i32 %29, 1
  br i1 %30, label %31, label %33, !prof !28

31:                                               ; preds = %28
  %32 = add nsw i32 %29, -1
  store i32 %32, ptr %25, align 4, !tbaa !25
  br label %_ZN4lean10object_refD2Ev.exit

33:                                               ; preds = %28
  %.not.i.i.i9 = icmp eq i32 %29, 0
  br i1 %.not.i.i.i9, label %_ZN4lean10object_refD2Ev.exit, label %34

34:                                               ; preds = %33
  invoke void @lean_dec_ref_cold(ptr noundef nonnull %25)
          to label %_ZN4lean10object_refD2Ev.exit unwind label %35

35:                                               ; preds = %34
  %36 = landingpad { ptr, i32 }
          catch ptr null
  %37 = extractvalue { ptr, i32 } %36, 0
  call void @__clang_call_terminate(ptr %37) #20
  unreachable

_ZN4lean10object_refD2Ev.exit:                    ; preds = %24, %31, %33, %34
  call void @llvm.lifetime.end.p0(i64 8, ptr nonnull %4) #18
  br label %_ZN4lean4exprC2ERKS0_.exit

38:                                               ; preds = %20
  %39 = landingpad { ptr, i32 }
          cleanup
  call void @_ZN4lean10object_refD2Ev(ptr noundef nonnull align 8 dereferenceable(8) %4) #18
  call void @llvm.lifetime.end.p0(i64 8, ptr nonnull %4) #18
  resume { ptr, i32 } %39

_ZN4lean4exprC2ERKS0_.exit:                       ; preds = %19, %18, %16, %11, %_ZN4lean10object_refD2Ev.exit, %10
  ret void
}